; Function Attrs: nounwind uwtable
define dso_local void @createPidFile() local_unnamed_addr #0 {
entry:
  %0 = load ptr, ptr getelementptr inbounds (%struct.redisServer, ptr @server, i64 0, i32 23), align 8
  %tobool.not = icmp eq ptr %0, null
  br i1 %tobool.not, label %if.then, label %if.end

if.then:                                          ; preds = %entry
  %call = tail call noalias ptr @zstrdup(ptr noundef nonnull @.str.400) #38
  store ptr %call, ptr getelementptr inbounds (%struct.redisServer, ptr @server, i64 0, i32 23), align 8
  br label %if.end

if.end:                                           ; preds = %if.then, %entry
  %1 = phi ptr [ %call, %if.then ], [ %0, %entry ]
  %call1 = tail call noalias ptr @fopen64(ptr noundef %1, ptr noundef nonnull @.str.401)
  %tobool2.not = icmp eq ptr %call1, null
  br i1 %tobool2.not, label %do.body, label %if.then3

if.then3:                                         ; preds = %if.end
  %call4 = tail call i32 @getpid() #38
  %call5 = tail call i32 (ptr, ptr, ...) @fprintf(ptr noundef nonnull %call1, ptr noundef nonnull @.str.132, i32 noundef %call4) #38
  %call6 = tail call i32 @fclose(ptr noundef nonnull %call1)
  br label %if.end11

do.body:                                          ; preds = %if.end
  %2 = load i32, ptr getelementptr inbounds (%struct.redisServer, ptr @server, i64 0, i32 156), align 8
  %cmp = icmp sgt i32 %2, 3
  br i1 %cmp, label %if.end11, label %if.end8

if.end8:                                          ; preds = %do.body
  %call9 = tail call ptr @__errno_location() #41
  %3 = load i32, ptr %call9, align 4
  %call10 = tail call ptr @strerror(i32 noundef %3) #38
  tail call void (i32, ptr, ...) @_serverLog(i32 noundef 3, ptr noundef nonnull @.str.402, ptr noundef %call10)
  br label %if.end11

if.end11:                                         ; preds = %if.end8, %do.body, %if.then3
  ret void
}